; Function Attrs: nounwind uwtable
define ptr @l___private_Init_Omega_IntList_0__List_getElem_x3f__zipWith_match__1_splitter___rarg(ptr noundef %0, ptr noundef %1, ptr noundef %2, ptr noundef %3) #0 {
  %5 = ptrtoint ptr %0 to i64
  %6 = and i64 %5, 1
  %.not.i37 = icmp eq i64 %6, 0
  br i1 %.not.i37, label %10, label %7

7:                                                ; preds = %4
  %8 = lshr i64 %5, 1
  %9 = trunc i64 %8 to i32
  br label %lean_obj_tag.exit

10:                                               ; preds = %4
  %11 = getelementptr i8, ptr %0, i64 4
  %.val.i = load i32, ptr %11, align 4
  %12 = lshr i32 %.val.i, 24
  br label %lean_obj_tag.exit

lean_obj_tag.exit:                                ; preds = %7, %10
  %.0.i = phi i32 [ %9, %7 ], [ %12, %10 ]
  %13 = icmp eq i32 %.0.i, 0
  br i1 %13, label %14, label %25

14:                                               ; preds = %lean_obj_tag.exit
  %15 = ptrtoint ptr %2 to i64
  %16 = and i64 %15, 1
  %.not52 = icmp eq i64 %16, 0
  br i1 %.not52, label %17, label %lean_dec.exit28

17:                                               ; preds = %14
  %18 = load i32, ptr %2, align 4, !tbaa !8
  %19 = icmp sgt i32 %18, 1
  br i1 %19, label %20, label %22, !prof !11

20:                                               ; preds = %17
  %21 = add nsw i32 %18, -1
  store i32 %21, ptr %2, align 4, !tbaa !8
  br label %lean_dec.exit28

22:                                               ; preds = %17
  %.not.i = icmp eq i32 %18, 0
  br i1 %.not.i, label %lean_dec.exit28, label %23

23:                                               ; preds = %22
  tail call void @lean_dec_ref_cold(ptr noundef nonnull %2) #3
  br label %lean_dec.exit28

lean_dec.exit28:                                  ; preds = %23, %22, %20, %14
  %24 = tail call ptr @lean_apply_3(ptr noundef %3, ptr noundef %0, ptr noundef %1, ptr noundef nonnull inttoptr (i64 1 to ptr)) #3
  br label %91

25:                                               ; preds = %lean_obj_tag.exit
  %26 = ptrtoint ptr %1 to i64
  %27 = and i64 %26, 1
  %.not.i38 = icmp eq i64 %27, 0
  br i1 %.not.i38, label %31, label %28

28:                                               ; preds = %25
  %29 = lshr i64 %26, 1
  %30 = trunc i64 %29 to i32
  br label %lean_obj_tag.exit41

31:                                               ; preds = %25
  %32 = getelementptr i8, ptr %1, i64 4
  %.val.i40 = load i32, ptr %32, align 4
  %33 = lshr i32 %.val.i40, 24
  br label %lean_obj_tag.exit41

lean_obj_tag.exit41:                              ; preds = %28, %31
  %.0.i39 = phi i32 [ %30, %28 ], [ %33, %31 ]
  %34 = icmp eq i32 %.0.i39, 0
  br i1 %34, label %35, label %46

35:                                               ; preds = %lean_obj_tag.exit41
  %36 = ptrtoint ptr %2 to i64
  %37 = and i64 %36, 1
  %.not51 = icmp eq i64 %37, 0
  br i1 %.not51, label %38, label %lean_dec.exit27

38:                                               ; preds = %35
  %39 = load i32, ptr %2, align 4, !tbaa !8
  %40 = icmp sgt i32 %39, 1
  br i1 %40, label %41, label %43, !prof !11

41:                                               ; preds = %38
  %42 = add nsw i32 %39, -1
  store i32 %42, ptr %2, align 4, !tbaa !8
  br label %lean_dec.exit27

43:                                               ; preds = %38
  %.not.i29 = icmp eq i32 %39, 0
  br i1 %.not.i29, label %lean_dec.exit27, label %44

44:                                               ; preds = %43
  tail call void @lean_dec_ref_cold(ptr noundef nonnull %2) #3
  br label %lean_dec.exit27

lean_dec.exit27:                                  ; preds = %44, %43, %41, %35
  %45 = tail call ptr @lean_apply_3(ptr noundef %3, ptr noundef %0, ptr noundef %1, ptr noundef nonnull inttoptr (i64 1 to ptr)) #3
  br label %91

46:                                               ; preds = %lean_obj_tag.exit41
  %47 = ptrtoint ptr %3 to i64
  %48 = and i64 %47, 1
  %.not = icmp eq i64 %48, 0
  br i1 %.not, label %49, label %lean_dec.exit26

49:                                               ; preds = %46
  %50 = load i32, ptr %3, align 4, !tbaa !8
  %51 = icmp sgt i32 %50, 1
  br i1 %51, label %52, label %54, !prof !11

52:                                               ; preds = %49
  %53 = add nsw i32 %50, -1
  store i32 %53, ptr %3, align 4, !tbaa !8
  br label %lean_dec.exit26

54:                                               ; preds = %49
  %.not.i31 = icmp eq i32 %50, 0
  br i1 %.not.i31, label %lean_dec.exit26, label %55

55:                                               ; preds = %54
  tail call void @lean_dec_ref_cold(ptr noundef nonnull %3) #3
  br label %lean_dec.exit26

lean_dec.exit26:                                  ; preds = %55, %54, %52, %46
  %56 = getelementptr inbounds nuw i8, ptr %0, i64 8
  %57 = load ptr, ptr %56, align 8, !tbaa !4
  %58 = ptrtoint ptr %57 to i64
  %59 = and i64 %58, 1
  %.not47 = icmp eq i64 %59, 0
  br i1 %.not47, label %60, label %lean_inc.exit24

60:                                               ; preds = %lean_dec.exit26
  %.val.i42 = load i32, ptr %57, align 4, !tbaa !8
  %61 = icmp sgt i32 %.val.i42, 0
  br i1 %61, label %62, label %64, !prof !11

62:                                               ; preds = %60
  %63 = add nuw i32 %.val.i42, 1
  store i32 %63, ptr %57, align 4, !tbaa !8
  br label %lean_inc.exit24

64:                                               ; preds = %60
  %.not.i43 = icmp eq i32 %.val.i42, 0
  br i1 %.not.i43, label %lean_inc.exit24, label %65

65:                                               ; preds = %64
  tail call void @lean_inc_ref_cold(ptr noundef nonnull %57) #3
  br label %lean_inc.exit24

lean_inc.exit24:                                  ; preds = %65, %64, %62, %lean_dec.exit26
  br i1 %.not.i37, label %66, label %lean_dec.exit25

66:                                               ; preds = %lean_inc.exit24
  %67 = load i32, ptr %0, align 4, !tbaa !8
  %68 = icmp sgt i32 %67, 1
  br i1 %68, label %69, label %71, !prof !11

69:                                               ; preds = %66
  %70 = add nsw i32 %67, -1
  store i32 %70, ptr %0, align 4, !tbaa !8
  br label %lean_dec.exit25

71:                                               ; preds = %66
  %.not.i33 = icmp eq i32 %67, 0
  br i1 %.not.i33, label %lean_dec.exit25, label %72

72:                                               ; preds = %71
  tail call void @lean_dec_ref_cold(ptr noundef nonnull %0) #3
  br label %lean_dec.exit25

lean_dec.exit25:                                  ; preds = %72, %71, %69, %lean_inc.exit24
  %73 = getelementptr inbounds nuw i8, ptr %1, i64 8
  %74 = load ptr, ptr %73, align 8, !tbaa !4
  %75 = ptrtoint ptr %74 to i64
  %76 = and i64 %75, 1
  %.not49 = icmp eq i64 %76, 0
  br i1 %.not49, label %77, label %lean_inc.exit

77:                                               ; preds = %lean_dec.exit25
  %.val.i44 = load i32, ptr %74, align 4, !tbaa !8
  %78 = icmp sgt i32 %.val.i44, 0
  br i1 %78, label %79, label %81, !prof !11

79:                                               ; preds = %77
  %80 = add nuw i32 %.val.i44, 1
  store i32 %80, ptr %74, align 4, !tbaa !8
  br label %lean_inc.exit

81:                                               ; preds = %77
  %.not.i45 = icmp eq i32 %.val.i44, 0
  br i1 %.not.i45, label %lean_inc.exit, label %82

82:                                               ; preds = %81
  tail call void @lean_inc_ref_cold(ptr noundef nonnull %74) #3
  br label %lean_inc.exit

lean_inc.exit:                                    ; preds = %82, %81, %79, %lean_dec.exit25
  br i1 %.not.i38, label %83, label %lean_dec.exit

83:                                               ; preds = %lean_inc.exit
  %84 = load i32, ptr %1, align 4, !tbaa !8
  %85 = icmp sgt i32 %84, 1
  br i1 %85, label %86, label %88, !prof !11

86:                                               ; preds = %83
  %87 = add nsw i32 %84, -1
  store i32 %87, ptr %1, align 4, !tbaa !8
  br label %lean_dec.exit

88:                                               ; preds = %83
  %.not.i35 = icmp eq i32 %84, 0
  br i1 %.not.i35, label %lean_dec.exit, label %89

89:                                               ; preds = %88
  tail call void @lean_dec_ref_cold(ptr noundef nonnull %1) #3
  br label %lean_dec.exit

lean_dec.exit:                                    ; preds = %89, %88, %86, %lean_inc.exit
  %90 = tail call ptr @lean_apply_2(ptr noundef %2, ptr noundef %57, ptr noundef %74) #3
  br label %91

91:                                               ; preds = %lean_dec.exit, %lean_dec.exit27, %lean_dec.exit28
  %.0 = phi ptr [ %24, %lean_dec.exit28 ], [ %45, %lean_dec.exit27 ], [ %90, %lean_dec.exit ]
  ret ptr %.0
}